; ModuleID = '57/2324.c'
source_filename = "57/2324.c"
target datalayout = "e-m:e-p270:32:32-p271:32:32-p272:64:64-i64:64-f80:128-n8:16:32:64-S128"
target triple = "x86_64-pc-linux-gnu"

@.str = private unnamed_addr constant [3 x i8] c"%d\00", align 1
@.str.1 = private unnamed_addr constant [3 x i8] c"%s\00", align 1
@.str.2 = private unnamed_addr constant [4 x i8] c"%s\0A\00", align 1

; Function Attrs: noinline nounwind uwtable
define dso_local void @main() #0 {
  %1 = alloca i32, align 4
  %2 = alloca i32, align 4
  %3 = alloca i32, align 4
  %4 = alloca [100 x [100 x i8]], align 16
  store i32 0, i32* %3, align 4
  %5 = call i32 (i8*, ...) @__isoc99_scanf(i8* getelementptr inbounds ([3 x i8], [3 x i8]* @.str, i64 0, i64 0), i32* %1)
  store i32 0, i32* %2, align 4
  br label %6

6:                                                ; preds = %16, %0
  %7 = load i32, i32* %2, align 4
  %8 = load i32, i32* %1, align 4
  %9 = icmp slt i32 %7, %8
  br i1 %9, label %10, label %19

10:                                               ; preds = %6
  %11 = load i32, i32* %2, align 4
  %12 = sext i32 %11 to i64
  %13 = getelementptr inbounds [100 x [100 x i8]], [100 x [100 x i8]]* %4, i64 0, i64 %12
  %14 = getelementptr inbounds [100 x i8], [100 x i8]* %13, i64 0, i64 0
  %15 = call i32 (i8*, ...) @__isoc99_scanf(i8* getelementptr inbounds ([3 x i8], [3 x i8]* @.str.1, i64 0, i64 0), i8* %14)
  br label %16

16:                                               ; preds = %10
  %17 = load i32, i32* %2, align 4
  %18 = add nsw i32 %17, 1
  store i32 %18, i32* %2, align 4
  br label %6

19:                                               ; preds = %6
  store i32 0, i32* %2, align 4
  br label %20

20:                                               ; preds = %173, %19
  %21 = load i32, i32* %2, align 4
  %22 = load i32, i32* %1, align 4
  %23 = icmp slt i32 %21, %22
  br i1 %23, label %24, label %176

24:                                               ; preds = %20
  %25 = load i32, i32* %2, align 4
  %26 = sext i32 %25 to i64
  %27 = getelementptr inbounds [100 x [100 x i8]], [100 x [100 x i8]]* %4, i64 0, i64 %26
  %28 = load i32, i32* %2, align 4
  %29 = sext i32 %28 to i64
  %30 = getelementptr inbounds [100 x [100 x i8]], [100 x [100 x i8]]* %4, i64 0, i64 %29
  %31 = getelementptr inbounds [100 x i8], [100 x i8]* %30, i64 0, i64 0
  %32 = call i64 @strlen(i8* %31) #3
  %33 = sub i64 %32, 1
  %34 = getelementptr inbounds [100 x i8], [100 x i8]* %27, i64 0, i64 %33
  %35 = load i8, i8* %34, align 1
  %36 = sext i8 %35 to i32
  %37 = icmp eq i32 %36, 114
  br i1 %37, label %38, label %63

38:                                               ; preds = %24
  %39 = load i32, i32* %2, align 4
  %40 = sext i32 %39 to i64
  %41 = getelementptr inbounds [100 x [100 x i8]], [100 x [100 x i8]]* %4, i64 0, i64 %40
  %42 = load i32, i32* %2, align 4
  %43 = sext i32 %42 to i64
  %44 = getelementptr inbounds [100 x [100 x i8]], [100 x [100 x i8]]* %4, i64 0, i64 %43
  %45 = getelementptr inbounds [100 x i8], [100 x i8]* %44, i64 0, i64 0
  %46 = call i64 @strlen(i8* %45) #3
  %47 = sub i64 %46, 2
  %48 = getelementptr inbounds [100 x i8], [100 x i8]* %41, i64 0, i64 %47
  %49 = load i8, i8* %48, align 1
  %50 = sext i8 %49 to i32
  %51 = icmp eq i32 %50, 101
  br i1 %51, label %52, label %63

52:                                               ; preds = %38
  %53 = load i32, i32* %2, align 4
  %54 = sext i32 %53 to i64
  %55 = getelementptr inbounds [100 x [100 x i8]], [100 x [100 x i8]]* %4, i64 0, i64 %54
  %56 = load i32, i32* %2, align 4
  %57 = sext i32 %56 to i64
  %58 = getelementptr inbounds [100 x [100 x i8]], [100 x [100 x i8]]* %4, i64 0, i64 %57
  %59 = getelementptr inbounds [100 x i8], [100 x i8]* %58, i64 0, i64 0
  %60 = call i64 @strlen(i8* %59) #3
  %61 = sub i64 %60, 2
  %62 = getelementptr inbounds [100 x i8], [100 x i8]* %55, i64 0, i64 %61
  store i8 0, i8* %62, align 1
  br label %63

63:                                               ; preds = %52, %38, %24
  %64 = load i32, i32* %2, align 4
  %65 = sext i32 %64 to i64
  %66 = getelementptr inbounds [100 x [100 x i8]], [100 x [100 x i8]]* %4, i64 0, i64 %65
  %67 = load i32, i32* %2, align 4
  %68 = sext i32 %67 to i64
  %69 = getelementptr inbounds [100 x [100 x i8]], [100 x [100 x i8]]* %4, i64 0, i64 %68
  %70 = getelementptr inbounds [100 x i8], [100 x i8]* %69, i64 0, i64 0
  %71 = call i64 @strlen(i8* %70) #3
  %72 = sub i64 %71, 1
  %73 = getelementptr inbounds [100 x i8], [100 x i8]* %66, i64 0, i64 %72
  %74 = load i8, i8* %73, align 1
  %75 = sext i8 %74 to i32
  %76 = icmp eq i32 %75, 121
  br i1 %76, label %77, label %102

77:                                               ; preds = %63
  %78 = load i32, i32* %2, align 4
  %79 = sext i32 %78 to i64
  %80 = getelementptr inbounds [100 x [100 x i8]], [100 x [100 x i8]]* %4, i64 0, i64 %79
  %81 = load i32, i32* %2, align 4
  %82 = sext i32 %81 to i64
  %83 = getelementptr inbounds [100 x [100 x i8]], [100 x [100 x i8]]* %4, i64 0, i64 %82
  %84 = getelementptr inbounds [100 x i8], [100 x i8]* %83, i64 0, i64 0
  %85 = call i64 @strlen(i8* %84) #3
  %86 = sub i64 %85, 2
  %87 = getelementptr inbounds [100 x i8], [100 x i8]* %80, i64 0, i64 %86
  %88 = load i8, i8* %87, align 1
  %89 = sext i8 %88 to i32
  %90 = icmp eq i32 %89, 108
  br i1 %90, label %91, label %102

91:                                               ; preds = %77
  %92 = load i32, i32* %2, align 4
  %93 = sext i32 %92 to i64
  %94 = getelementptr inbounds [100 x [100 x i8]], [100 x [100 x i8]]* %4, i64 0, i64 %93
  %95 = load i32, i32* %2, align 4
  %96 = sext i32 %95 to i64
  %97 = getelementptr inbounds [100 x [100 x i8]], [100 x [100 x i8]]* %4, i64 0, i64 %96
  %98 = getelementptr inbounds [100 x i8], [100 x i8]* %97, i64 0, i64 0
  %99 = call i64 @strlen(i8* %98) #3
  %100 = sub i64 %99, 2
  %101 = getelementptr inbounds [100 x i8], [100 x i8]* %94, i64 0, i64 %100
  store i8 0, i8* %101, align 1
  br label %102

102:                                              ; preds = %91, %77, %63
  %103 = load i32, i32* %2, align 4
  %104 = sext i32 %103 to i64
  %105 = getelementptr inbounds [100 x [100 x i8]], [100 x [100 x i8]]* %4, i64 0, i64 %104
  %106 = load i32, i32* %2, align 4
  %107 = sext i32 %106 to i64
  %108 = getelementptr inbounds [100 x [100 x i8]], [100 x [100 x i8]]* %4, i64 0, i64 %107
  %109 = getelementptr inbounds [100 x i8], [100 x i8]* %108, i64 0, i64 0
  %110 = call i64 @strlen(i8* %109) #3
  %111 = sub i64 %110, 1
  %112 = getelementptr inbounds [100 x i8], [100 x i8]* %105, i64 0, i64 %111
  %113 = load i8, i8* %112, align 1
  %114 = sext i8 %113 to i32
  %115 = icmp eq i32 %114, 103
  br i1 %115, label %116, label %155

116:                                              ; preds = %102
  %117 = load i32, i32* %2, align 4
  %118 = sext i32 %117 to i64
  %119 = getelementptr inbounds [100 x [100 x i8]], [100 x [100 x i8]]* %4, i64 0, i64 %118
  %120 = load i32, i32* %2, align 4
  %121 = sext i32 %120 to i64
  %122 = getelementptr inbounds [100 x [100 x i8]], [100 x [100 x i8]]* %4, i64 0, i64 %121
  %123 = getelementptr inbounds [100 x i8], [100 x i8]* %122, i64 0, i64 0
  %124 = call i64 @strlen(i8* %123) #3
  %125 = sub i64 %124, 2
  %126 = getelementptr inbounds [100 x i8], [100 x i8]* %119, i64 0, i64 %125
  %127 = load i8, i8* %126, align 1
  %128 = sext i8 %127 to i32
  %129 = icmp eq i32 %128, 110
  br i1 %129, label %130, label %155

130:                                              ; preds = %116
  %131 = load i32, i32* %2, align 4
  %132 = sext i32 %131 to i64
  %133 = getelementptr inbounds [100 x [100 x i8]], [100 x [100 x i8]]* %4, i64 0, i64 %132
  %134 = load i32, i32* %2, align 4
  %135 = sext i32 %134 to i64
  %136 = getelementptr inbounds [100 x [100 x i8]], [100 x [100 x i8]]* %4, i64 0, i64 %135
  %137 = getelementptr inbounds [100 x i8], [100 x i8]* %136, i64 0, i64 0
  %138 = call i64 @strlen(i8* %137) #3
  %139 = sub i64 %138, 3
  %140 = getelementptr inbounds [100 x i8], [100 x i8]* %133, i64 0, i64 %139
  %141 = load i8, i8* %140, align 1
  %142 = sext i8 %141 to i32
  %143 = icmp eq i32 %142, 105
  br i1 %143, label %144, label %155

144:                                              ; preds = %130
  %145 = load i32, i32* %2, align 4
  %146 = sext i32 %145 to i64
  %147 = getelementptr inbounds [100 x [100 x i8]], [100 x [100 x i8]]* %4, i64 0, i64 %146
  %148 = load i32, i32* %2, align 4
  %149 = sext i32 %148 to i64
  %150 = getelementptr inbounds [100 x [100 x i8]], [100 x [100 x i8]]* %4, i64 0, i64 %149
  %151 = getelementptr inbounds [100 x i8], [100 x i8]* %150, i64 0, i64 0
  %152 = call i64 @strlen(i8* %151) #3
  %153 = sub i64 %152, 3
  %154 = getelementptr inbounds [100 x i8], [100 x i8]* %147, i64 0, i64 %153
  store i8 0, i8* %154, align 1
  br label %155

155:                                              ; preds = %144, %130, %116, %102
  %156 = load i32, i32* %2, align 4
  %157 = load i32, i32* %1, align 4
  %158 = sub nsw i32 %157, 1
  %159 = icmp ne i32 %156, %158
  br i1 %159, label %160, label %166

160:                                              ; preds = %155
  %161 = load i32, i32* %2, align 4
  %162 = sext i32 %161 to i64
  %163 = getelementptr inbounds [100 x [100 x i8]], [100 x [100 x i8]]* %4, i64 0, i64 %162
  %164 = getelementptr inbounds [100 x i8], [100 x i8]* %163, i64 0, i64 0
  %165 = call i32 (i8*, ...) @printf(i8* getelementptr inbounds ([4 x i8], [4 x i8]* @.str.2, i64 0, i64 0), i8* %164)
  br label %172

166:                                              ; preds = %155
  %167 = load i32, i32* %2, align 4
  %168 = sext i32 %167 to i64
  %169 = getelementptr inbounds [100 x [100 x i8]], [100 x [100 x i8]]* %4, i64 0, i64 %168
  %170 = getelementptr inbounds [100 x i8], [100 x i8]* %169, i64 0, i64 0
  %171 = call i32 (i8*, ...) @printf(i8* getelementptr inbounds ([3 x i8], [3 x i8]* @.str.1, i64 0, i64 0), i8* %170)
  br label %172

172:                                              ; preds = %166, %160
  br label %173

173:                                              ; preds = %172
  %174 = load i32, i32* %2, align 4
  %175 = add nsw i32 %174, 1
  store i32 %175, i32* %2, align 4
  br label %20

176:                                              ; preds = %20
  ret void
}

declare dso_local i32 @__isoc99_scanf(i8*, ...) #1

; Function Attrs: nounwind readonly
declare dso_local i64 @strlen(i8*) #2

declare dso_local i32 @printf(i8*, ...) #1


!llvm.module.flags = !{!0}
!llvm.ident = !{!1}

!0 = !{i32 1, !"wchar_size", i32 4}
!1 = !{!"clang version 10.0.0-4ubuntu1 "}
